; Function Attrs: mustprogress nounwind uwtable
define dso_local noundef nonnull align 8 dereferenceable(24) ptr @_ZN4llvm7msgpack10MapDocNodeixEi(ptr nocapture noundef nonnull readonly align 8 dereferenceable(24) %0, i32 noundef %1) local_unnamed_addr #0 align 2 {
  %3 = alloca %"class.llvm::msgpack::DocNode", align 8
  %4 = load ptr, ptr %0, align 8
  %5 = load ptr, ptr %4, align 8
  %6 = getelementptr inbounds nuw i8, ptr %5, i64 96
  %7 = sext i32 %1 to i64
  call void @llvm.lifetime.start.p0(i64 24, ptr nonnull %3)
  store ptr %6, ptr %3, align 8
  %.sroa.2.0..sroa_idx = getelementptr inbounds i8, ptr %3, i64 8
  store i64 %7, ptr %.sroa.2.0..sroa_idx, align 8
  %8 = getelementptr inbounds nuw i8, ptr %0, i64 8
  %9 = load ptr, ptr %8, align 8
  %10 = call noundef nonnull align 8 dereferenceable(24) ptr @_ZNSt3mapIN4llvm7msgpack7DocNodeES2_St4lessIS2_ESaISt4pairIKS2_S2_EEEixERS6_(ptr noundef nonnull align 8 dereferenceable(48) %9, ptr noundef nonnull align 8 dereferenceable(24) %3)
  %11 = load ptr, ptr %10, align 8
  %.not.i.i = icmp eq ptr %11, null
  br i1 %.not.i.i, label %_ZNK4llvm7msgpack7DocNode7isEmptyEv.exit.thread.i, label %_ZNK4llvm7msgpack7DocNode7isEmptyEv.exit.i

_ZNK4llvm7msgpack7DocNode7isEmptyEv.exit.i:       ; preds = %2
  %12 = getelementptr inbounds nuw i8, ptr %11, i64 8
  %13 = load i8, ptr %12, align 8
  %14 = icmp eq i8 %13, 10
  br i1 %14, label %_ZNK4llvm7msgpack7DocNode7isEmptyEv.exit.thread.i, label %_ZN4llvm7msgpack10MapDocNodeixENS0_7DocNodeE.exit

_ZNK4llvm7msgpack7DocNode7isEmptyEv.exit.thread.i: ; preds = %_ZNK4llvm7msgpack7DocNode7isEmptyEv.exit.i, %2
  %15 = load ptr, ptr %0, align 8
  %16 = load ptr, ptr %15, align 8
  %17 = getelementptr inbounds i8, ptr %16, i64 256
  store ptr %17, ptr %10, align 8
  br label %_ZN4llvm7msgpack10MapDocNodeixENS0_7DocNodeE.exit

_ZN4llvm7msgpack10MapDocNodeixENS0_7DocNodeE.exit: ; preds = %_ZNK4llvm7msgpack7DocNode7isEmptyEv.exit.i, %_ZNK4llvm7msgpack7DocNode7isEmptyEv.exit.thread.i
  call void @llvm.lifetime.end.p0(i64 24, ptr nonnull %3)
  ret ptr %10
}